target datalayout = "e-m:e-p270:32:32-p271:32:32-p272:64:64-i64:64-i128:128-f80:128-n8:16:32:64-S128"
target triple = "x86_64-pc-linux-gnu"

%"class.boost::core::basic_string_view" = type { ptr, i64 }
%"struct.boost::urls::detail::url_impl" = type <{ ptr, [8 x i64], [7 x i64], i64, i64, [16 x i8], i16, [2 x i8], i32, i16, i8, [5 x i8] }>
%"class.boost::urls::grammar::string_view_base" = type { %"class.boost::core::basic_string_view" }
%"class.boost::urls::pct_string_view" = type { %"class.boost::urls::grammar::string_view_base", i64 }
%"class.boost::urls::detail::path_ref" = type { ptr, ptr, i64, i64, i64 }

; Function Attrs: mustprogress nounwind uwtable
define linkonce_odr hidden void @_ZN5boost4core17basic_string_viewIcEC2EPKcm(ptr noundef nonnull align 8 dereferenceable(16) %0, ptr noundef %1, i64 noundef %2) unnamed_addr #1 comdat align 2 {
  %4 = alloca ptr, align 8
  %5 = alloca ptr, align 8
  %6 = alloca i64, align 8
  store ptr %0, ptr %4, align 8, !tbaa !3
  store ptr %1, ptr %5, align 8, !tbaa !3
  store i64 %2, ptr %6, align 8, !tbaa !8
  %7 = load ptr, ptr %4, align 8
  %8 = getelementptr inbounds nuw %"class.boost::core::basic_string_view", ptr %7, i32 0, i32 0
  %9 = load ptr, ptr %5, align 8, !tbaa !3
  store ptr %9, ptr %8, align 8, !tbaa !37
  %10 = getelementptr inbounds nuw %"class.boost::core::basic_string_view", ptr %7, i32 0, i32 1
  %11 = load i64, ptr %6, align 8, !tbaa !8
  store i64 %11, ptr %10, align 8, !tbaa !20
  ret void
}

; Function Attrs: mustprogress nounwind uwtable
define linkonce_odr hidden void @_ZN5boost4urls7grammar16string_view_baseC2EPKcm(ptr noundef nonnull align 8 dereferenceable(16) %0, ptr noundef %1, i64 noundef %2) unnamed_addr #1 comdat align 2 {
  %4 = alloca ptr, align 8
  %5 = alloca ptr, align 8
  %6 = alloca i64, align 8
  store ptr %0, ptr %4, align 8, !tbaa !3
  store ptr %1, ptr %5, align 8, !tbaa !3
  store i64 %2, ptr %6, align 8, !tbaa !8
  %7 = load ptr, ptr %4, align 8
  %8 = getelementptr inbounds nuw %"class.boost::urls::grammar::string_view_base", ptr %7, i32 0, i32 0
  %9 = load ptr, ptr %5, align 8, !tbaa !3
  %10 = load i64, ptr %6, align 8, !tbaa !8
  call void @_ZN5boost4core17basic_string_viewIcEC2EPKcm(ptr noundef nonnull align 8 dereferenceable(16) %8, ptr noundef %9, i64 noundef %10) #5
  ret void
}

; Function Attrs: mustprogress nounwind uwtable
define linkonce_odr hidden void @_ZN5boost4urls15pct_string_viewC2EPKcmm(ptr noundef nonnull align 8 dereferenceable(24) %0, ptr noundef %1, i64 noundef %2, i64 noundef %3) unnamed_addr #1 comdat align 2 {
  %5 = alloca ptr, align 8
  %6 = alloca ptr, align 8
  %7 = alloca i64, align 8
  %8 = alloca i64, align 8
  store ptr %0, ptr %5, align 8, !tbaa !3
  store ptr %1, ptr %6, align 8, !tbaa !3
  store i64 %2, ptr %7, align 8, !tbaa !8
  store i64 %3, ptr %8, align 8, !tbaa !8
  %9 = load ptr, ptr %5, align 8
  %10 = load ptr, ptr %6, align 8, !tbaa !3
  %11 = load i64, ptr %7, align 8, !tbaa !8
  call void @_ZN5boost4urls7grammar16string_view_baseC2EPKcm(ptr noundef nonnull align 8 dereferenceable(16) %9, ptr noundef %10, i64 noundef %11) #5
  %12 = getelementptr inbounds nuw %"class.boost::urls::pct_string_view", ptr %9, i32 0, i32 1
  %13 = load i64, ptr %8, align 8, !tbaa !8
  store i64 %13, ptr %12, align 8, !tbaa !22
  ret void
}

; Function Attrs: inlinehint mustprogress nounwind uwtable
define linkonce_odr hidden void @_ZN5boost4urls27make_pct_string_view_unsafeEPKcmm(ptr dead_on_unwind noalias writable sret(%"class.boost::urls::pct_string_view") align 8 %0, ptr noundef %1, i64 noundef %2, i64 noundef %3) #4 comdat {
  %5 = alloca ptr, align 8
  %6 = alloca i64, align 8
  %7 = alloca i64, align 8
  store ptr %1, ptr %5, align 8, !tbaa !3
  store i64 %2, ptr %6, align 8, !tbaa !8
  store i64 %3, ptr %7, align 8, !tbaa !8
  %8 = load ptr, ptr %5, align 8, !tbaa !3
  %9 = load i64, ptr %6, align 8, !tbaa !8
  %10 = load i64, ptr %7, align 8, !tbaa !8
  call void @_ZN5boost4urls15pct_string_viewC2EPKcmm(ptr noundef nonnull align 8 dereferenceable(24) %0, ptr noundef %8, i64 noundef %9, i64 noundef %10) #5
  ret void
}

; Function Attrs: mustprogress nounwind uwtable
define noundef i64 @_ZNK5boost4urls6detail8url_impl3lenEi(ptr noundef nonnull align 8 dereferenceable(171) %0, i32 noundef %1) #1 align 2 {
  %3 = alloca ptr, align 8
  %4 = alloca i32, align 4
  store ptr %0, ptr %3, align 8, !tbaa !3
  store i32 %1, ptr %4, align 4, !tbaa !16
  %5 = load ptr, ptr %3, align 8
  %6 = load i32, ptr %4, align 4, !tbaa !16
  %7 = icmp eq i32 %6, 7
  br i1 %7, label %8, label %9

8:                                                ; preds = %2
  br label %16

9:                                                ; preds = %2
  %10 = load i32, ptr %4, align 4, !tbaa !16
  %11 = add nsw i32 %10, 1
  %12 = call noundef i64 @_ZNK5boost4urls6detail8url_impl6offsetEi(ptr noundef nonnull align 8 dereferenceable(171) %5, i32 noundef %11) #5
  %13 = load i32, ptr %4, align 4, !tbaa !16
  %14 = call noundef i64 @_ZNK5boost4urls6detail8url_impl6offsetEi(ptr noundef nonnull align 8 dereferenceable(171) %5, i32 noundef %13) #5
  %15 = sub i64 %12, %14
  br label %16

16:                                               ; preds = %9, %8
  %17 = phi i64 [ 0, %8 ], [ %15, %9 ]
  ret i64 %17
}

; Function Attrs: mustprogress nounwind uwtable
define noundef i64 @_ZNK5boost4urls6detail8url_impl6offsetEi(ptr noundef nonnull align 8 dereferenceable(171) %0, i32 noundef %1) #1 align 2 {
  %3 = alloca ptr, align 8
  %4 = alloca i32, align 4
  store ptr %0, ptr %3, align 8, !tbaa !3
  store i32 %1, ptr %4, align 4, !tbaa !16
  %5 = load ptr, ptr %3, align 8
  %6 = load i32, ptr %4, align 4, !tbaa !16
  %7 = icmp eq i32 %6, -1
  br i1 %7, label %8, label %9

8:                                                ; preds = %2
  br label %15

9:                                                ; preds = %2
  %10 = getelementptr inbounds nuw %"struct.boost::urls::detail::url_impl", ptr %5, i32 0, i32 1
  %11 = load i32, ptr %4, align 4, !tbaa !16
  %12 = sext i32 %11 to i64
  %13 = getelementptr inbounds [8 x i64], ptr %10, i64 0, i64 %12
  %14 = load i64, ptr %13, align 8, !tbaa !8
  br label %15

15:                                               ; preds = %9, %8
  %16 = phi i64 [ 0, %8 ], [ %14, %9 ]
  ret i64 %16
}

; Function Attrs: mustprogress nounwind uwtable
define hidden void @_ZNK5boost4urls6detail8path_ref6bufferEv(ptr dead_on_unwind noalias writable sret(%"class.boost::urls::pct_string_view") align 8 %0, ptr noundef nonnull align 8 dereferenceable(40) %1) #1 align 2 {
  %3 = alloca ptr, align 8
  store ptr %1, ptr %3, align 8, !tbaa !3
  %4 = load ptr, ptr %3, align 8
  %5 = getelementptr inbounds nuw %"class.boost::urls::detail::path_ref", ptr %4, i32 0, i32 0
  %6 = load ptr, ptr %5, align 8, !tbaa !42
  %7 = icmp ne ptr %6, null
  br i1 %7, label %8, label %25

8:                                                ; preds = %2
  %9 = getelementptr inbounds nuw %"class.boost::urls::detail::path_ref", ptr %4, i32 0, i32 0
  %10 = load ptr, ptr %9, align 8, !tbaa !42
  %11 = getelementptr inbounds nuw %"struct.boost::urls::detail::url_impl", ptr %10, i32 0, i32 0
  %12 = load ptr, ptr %11, align 8, !tbaa !36
  %13 = getelementptr inbounds nuw %"class.boost::urls::detail::path_ref", ptr %4, i32 0, i32 0
  %14 = load ptr, ptr %13, align 8, !tbaa !42
  %15 = call noundef i64 @_ZNK5boost4urls6detail8url_impl6offsetEi(ptr noundef nonnull align 8 dereferenceable(171) %14, i32 noundef 4) #5
  %16 = getelementptr inbounds nuw i8, ptr %12, i64 %15
  %17 = getelementptr inbounds nuw %"class.boost::urls::detail::path_ref", ptr %4, i32 0, i32 0
  %18 = load ptr, ptr %17, align 8, !tbaa !42
  %19 = call noundef i64 @_ZNK5boost4urls6detail8url_impl3lenEi(ptr noundef nonnull align 8 dereferenceable(171) %18, i32 noundef 4) #5
  %20 = getelementptr inbounds nuw %"class.boost::urls::detail::path_ref", ptr %4, i32 0, i32 0
  %21 = load ptr, ptr %20, align 8, !tbaa !42
  %22 = getelementptr inbounds nuw %"struct.boost::urls::detail::url_impl", ptr %21, i32 0, i32 2
  %23 = getelementptr inbounds [7 x i64], ptr %22, i64 0, i64 4
  %24 = load i64, ptr %23, align 8, !tbaa !8
  call void @_ZN5boost4urls27make_pct_string_view_unsafeEPKcmm(ptr dead_on_unwind writable sret(%"class.boost::urls::pct_string_view") align 8 %0, ptr noundef %16, i64 noundef %19, i64 noundef %24) #5
  br label %32

25:                                               ; preds = %2
  %26 = getelementptr inbounds nuw %"class.boost::urls::detail::path_ref", ptr %4, i32 0, i32 1
  %27 = load ptr, ptr %26, align 8, !tbaa !44
  %28 = getelementptr inbounds nuw %"class.boost::urls::detail::path_ref", ptr %4, i32 0, i32 2
  %29 = load i64, ptr %28, align 8, !tbaa !45
  %30 = getelementptr inbounds nuw %"class.boost::urls::detail::path_ref", ptr %4, i32 0, i32 4
  %31 = load i64, ptr %30, align 8, !tbaa !47
  call void @_ZN5boost4urls27make_pct_string_view_unsafeEPKcmm(ptr dead_on_unwind writable sret(%"class.boost::urls::pct_string_view") align 8 %0, ptr noundef %27, i64 noundef %29, i64 noundef %31) #5
  br label %32

32:                                               ; preds = %25, %8
  ret void
}