; Function Attrs: mustprogress nofree norecurse nosync nounwind willreturn memory(read, argmem: readwrite, inaccessiblemem: none) uwtable
define hidden void @_ZNK5boost4urls6detail8path_ref6bufferEv(ptr dead_on_unwind noalias nocapture writable writeonly sret(%"class.boost::urls::pct_string_view") align 8 %0, ptr nocapture noundef nonnull readonly align 8 dereferenceable(40) %1) local_unnamed_addr #9 align 2 {
  %3 = load ptr, ptr %1, align 8, !tbaa !43
  %.not = icmp eq ptr %3, null
  br i1 %.not, label %13, label %4

4:                                                ; preds = %2
  %5 = load ptr, ptr %3, align 8, !tbaa !31
  %6 = getelementptr inbounds i8, ptr %3, i64 40
  %7 = load i64, ptr %6, align 8, !tbaa !13
  %8 = getelementptr inbounds nuw i8, ptr %5, i64 %7
  %9 = getelementptr inbounds i8, ptr %3, i64 48
  %10 = load i64, ptr %9, align 8, !tbaa !13
  %11 = sub i64 %10, %7
  %12 = getelementptr inbounds i8, ptr %3, i64 104
  br label %19

13:                                               ; preds = %2
  %14 = getelementptr inbounds nuw i8, ptr %1, i64 8
  %15 = load ptr, ptr %14, align 8, !tbaa !45
  %16 = getelementptr inbounds nuw i8, ptr %1, i64 16
  %17 = load i64, ptr %16, align 8, !tbaa !46
  %18 = getelementptr inbounds nuw i8, ptr %1, i64 32
  br label %19

19:                                               ; preds = %13, %4
  %.sink2 = phi ptr [ %15, %13 ], [ %8, %4 ]
  %.sink1 = phi i64 [ %17, %13 ], [ %11, %4 ]
  %.sink.in = phi ptr [ %18, %13 ], [ %12, %4 ]
  %.sink = load i64, ptr %.sink.in, align 8, !tbaa !13
  store ptr %.sink2, ptr %0, align 8
  %20 = getelementptr inbounds nuw i8, ptr %0, i64 8
  store i64 %.sink1, ptr %20, align 8
  %21 = getelementptr inbounds nuw i8, ptr %0, i64 16
  store i64 %.sink, ptr %21, align 8
  ret void
}